Certificate:
    Data:
        Version: 3 (0x2)
        Serial Number: 12325838370570344244 (0xab0e2cb164b99734)
    Signature Algorithm: sha256WithRSAEncryption
        Issuer: C=AU, ST=Some-State, O=Internet Widgits Pty Ltd, CN=graphistry.internal
        Validity
            Not Before: May  6 23:28:15 2016 GMT
            Not After : May  6 23:28:15 2019 GMT
        Subject: C=AU, ST=Some-State, O=Internet Widgits Pty Ltd, CN=graphistry.internal
        Subject Public Key Info:
            Public Key Algorithm: rsaEncryption
                Public-Key: (2048 bit)
                Modulus:
                    00:e7:55:64:93:28:c5:04:ac:97:cf:c0:7b:8c:8e:
                    75:c6:4d:b8:3e:f5:c6:ab:a6:3d:58:37:41:c5:c0:
                    a3:05:fd:0c:40:99:e9:32:d6:b7:60:38:68:6e:a8:
                    3d:c9:d1:38:d4:e0:4a:7c:33:13:bf:f6:de:46:1e:
                    7c:46:97:76:03:5b:60:cd:c5:c5:50:96:b6:80:82:
                    af:41:4c:5c:a7:12:0a:34:47:5b:5f:c1:6f:c3:61:
                    d5:be:c2:92:62:47:9f:94:3f:91:45:fa:a3:56:ca:
                    64:ce:35:d4:2e:ca:fb:d5:fd:4b:51:54:74:f1:e0:
                    d4:df:cb:97:9a:7e:62:57:49:0c:e0:89:53:f2:dc:
                    22:d6:8a:93:78:37:fc:f6:7f:54:f2:a7:73:ec:99:
                    ed:0d:e1:a6:f2:98:61:b2:52:b1:75:28:f1:79:0d:
                    c7:89:71:f8:86:d6:b4:eb:9a:89:59:9f:90:df:ce:
                    2b:2b:99:8c:7a:10:6b:d1:b6:9e:c2:44:72:ba:9c:
                    46:14:26:16:5e:89:71:f2:c7:d4:8f:cf:e4:c0:ad:
                    cd:04:35:e4:ee:b1:fa:65:ae:8a:a7:11:05:3a:7f:
                    d9:e9:6d:65:49:71:c6:f3:25:cf:42:3a:4d:b5:7b:
                    69:8e:73:97:eb:4b:1b:21:9c:5d:a5:c1:bb:b1:b5:
                    47:69
                Exponent: 65537 (0x10001)
        X509v3 extensions:
            X509v3 Subject Key Identifier: 
                5D:54:9A:EA:58:0A:14:D2:20:EF:78:7E:AB:64:94:71:76:6A:F9:B0
            X509v3 Authority Key Identifier: 
                keyid:5D:54:9A:EA:58:0A:14:D2:20:EF:78:7E:AB:64:94:71:76:6A:F9:B0

            X509v3 Basic Constraints: 
                CA:TRUE
    Signature Algorithm: sha256WithRSAEncryption
         1f:5b:08:a4:14:e1:fd:c7:6a:66:75:4d:5e:f1:ba:e0:ff:cb:
         d0:24:c0:b6:50:00:7d:c3:cc:10:85:28:34:59:aa:10:85:36:
         84:54:3a:70:11:2a:f0:f8:bd:f1:8c:f2:c2:a2:32:f4:59:20:
         c9:4b:fa:84:88:4c:88:c5:45:f0:07:30:b9:0b:d2:81:7a:37:
         c2:1d:00:76:79:0c:80:7a:d8:96:61:95:3d:f0:3d:10:9e:8e:
         7e:42:d2:49:27:a5:95:68:48:b7:e6:5c:98:e6:b8:16:d1:45:
         af:c1:b5:e0:3c:e5:ee:56:a4:22:88:4c:6a:5d:2d:f0:95:3d:
         ac:30:f4:2a:03:c0:fa:c2:42:61:a0:68:57:90:b4:8c:1a:72:
         bb:f6:4b:d5:0d:ea:8c:fd:42:2a:00:8d:14:fe:70:aa:c1:fc:
         70:84:90:f8:94:ba:9d:0b:f5:1c:6c:0e:5f:69:2a:62:b9:61:
         a2:23:53:af:9b:b8:21:e9:fd:f3:0d:37:80:39:bd:1b:c4:a9:
         4a:1d:37:88:30:15:82:97:5f:c6:e4:95:6d:63:eb:be:5c:a6:
         17:2a:27:7a:b8:9c:91:28:d1:c6:d0:06:79:d5:4d:7f:7a:7f:
         10:d4:49:b6:97:d2:01:82:8d:65:90:ed:6e:f4:60:ba:b8:4a:
         2b:c3:cf:07
-----BEGIN CERTIFICATE-----
MIIDmTCCAoGgAwIBAgIJAKsOLLFkuZc0MA0GCSqGSIb3DQEBCwUAMGMxCzAJBgNV
BAYTAkFVMRMwEQYDVQQIDApTb21lLVN0YXRlMSEwHwYDVQQKDBhJbnRlcm5ldCBX
aWRnaXRzIFB0eSBMdGQxHDAaBgNVBAMME2dyYXBoaXN0cnkuaW50ZXJuYWwwHhcN
MTYwNTA2MjMyODE1WhcNMTkwNTA2MjMyODE1WjBjMQswCQYDVQQGEwJBVTETMBEG
A1UECAwKU29tZS1TdGF0ZTEhMB8GA1UECgwYSW50ZXJuZXQgV2lkZ2l0cyBQdHkg
THRkMRwwGgYDVQQDDBNncmFwaGlzdHJ5LmludGVybmFsMIIBIjANBgkqhkiG9w0B
AQEFAAOCAQ8AMIIBCgKCAQEA51VkkyjFBKyXz8B7jI51xk24PvXGq6Y9WDdBxcCj
Bf0MQJnpMta3YDhobqg9ydE41OBKfDMTv/beRh58Rpd2A1tgzcXFUJa2gIKvQUxc
pxIKNEdbX8Fvw2HVvsKSYkeflD+RRfqjVspkzjXULsr71f1LUVR08eDU38uXmn5i
V0kM4IlT8twi1oqTeDf89n9U8qdz7JntDeGm8phhslKxdSjxeQ3HiXH4hta065qJ
WZ+Q384rK5mMehBr0baewkRyupxGFCYWXolx8sfUj8/kwK3NBDXk7rH6Za6KpxEF
On/Z6W1lSXHG8yXPQjpNtXtpjnOX60sbIZxdpcG7sbVHaQIDAQABo1AwTjAdBgNV
HQ4EFgQUXVSa6lgKFNIg73h+q2SUcXZq+bAwHwYDVR0jBBgwFoAUXVSa6lgKFNIg
73h+q2SUcXZq+bAwDAYDVR0TBAUwAwEB/zANBgkqhkiG9w0BAQsFAAOCAQEAH1sI
pBTh/cdqZnVNXvG64P/L0CTAtlAAfcPMEIUoNFmqEIU2hFQ6cBEq8Pi98YzywqIy
9FkgyUv6hIhMiMVF8AcwuQvSgXo3wh0AdnkMgHrYlmGVPfA9EJ6OfkLSSSellWhI
t+ZcmOa4FtFFr8G14Dzl7lakIohMal0t8JU9rDD0KgPA+sJCYaBoV5C0jBpyu/ZL
1Q3qjP1CKgCNFP5wqsH8cISQ+JS6nQv1HGwOX2kqYrlhoiNTr5u4Ien98w03gDm9
G8SpSh03iDAVgpdfxuSVbWPrvlymFyonerickSjRxtAGedVNf3p/ENRJtpfSAYKN
ZZDtbvRgurhKK8PPBw==
-----END CERTIFICATE-----
