Certificate:
    Data:
        Version: 3 (0x2)
        Serial Number: 12325838370570344245 (0xab0e2cb164b99735)
    Signature Algorithm: sha256WithRSAEncryption
        Issuer: C=AU, ST=Some-State, O=Internet Widgits Pty Ltd, CN=graphistry.internal
        Validity
            Not Before: May  6 23:41:39 2016 GMT
            Not After : May  6 23:41:39 2017 GMT
        Subject: C=AU, ST=Some-State, O=Internet Widgits Pty Ltd, CN=graphistry-in-a-box
        Subject Public Key Info:
            Public Key Algorithm: rsaEncryption
                Public-Key: (2048 bit)
                Modulus:
                    00:b1:e9:06:4d:b5:01:6a:5a:e9:69:21:59:f0:3c:
                    c8:95:b9:16:57:7d:a1:f4:f6:71:30:e7:a2:bc:4b:
                    be:23:94:0d:2e:92:bf:95:03:fa:f6:f6:cd:4d:4f:
                    8f:fc:a2:9c:fd:0c:8a:e3:5b:59:40:0c:c5:5c:92:
                    14:fd:cc:29:d8:fc:01:73:a3:24:0a:70:88:f6:aa:
                    a9:4b:33:5d:01:33:f9:ab:f6:e1:8e:5a:c8:16:98:
                    c1:47:0c:db:b6:59:ca:6f:c4:bc:a0:4f:4b:a2:24:
                    21:fe:cd:88:bd:48:c2:54:ba:43:13:3e:48:2d:4b:
                    47:1f:e4:de:29:48:42:0d:e7:c4:66:65:0e:dc:8b:
                    1a:5b:f7:b4:e1:43:4c:7e:a5:57:28:bc:96:35:fb:
                    9e:5f:1c:f3:48:6a:df:66:be:ca:2c:0d:48:1d:b3:
                    b1:1b:63:81:d8:77:ee:d3:69:52:63:9b:64:d4:93:
                    d0:28:3a:9f:7c:52:fa:60:d1:3a:a5:cd:dd:23:fb:
                    c2:b6:3a:e3:d6:8a:85:68:ba:a1:d2:33:98:17:9d:
                    fb:d9:8f:3f:c6:b1:bb:b2:89:9b:3c:d4:ff:97:c2:
                    95:af:1d:5c:85:32:54:a4:df:6b:80:fb:ed:6b:60:
                    65:41:76:16:dc:2c:7a:f5:00:ca:8e:19:dc:cf:fd:
                    46:bf
                Exponent: 65537 (0x10001)
        X509v3 extensions:
            X509v3 Basic Constraints: 
                CA:FALSE
            Netscape Comment: 
                OpenSSL Generated Certificate
            X509v3 Subject Key Identifier: 
                2B:35:7D:C6:A9:06:17:10:5E:8B:AF:CB:1A:58:2A:7C:19:44:A2:D5
            X509v3 Authority Key Identifier: 
                keyid:5D:54:9A:EA:58:0A:14:D2:20:EF:78:7E:AB:64:94:71:76:6A:F9:B0

    Signature Algorithm: sha256WithRSAEncryption
         9b:c1:bd:4d:31:52:84:2e:17:f4:b2:24:47:c4:83:27:92:9b:
         9b:c6:5f:60:cb:76:4b:0c:94:d0:4a:42:5b:ec:32:2b:3f:35:
         42:e3:f8:70:7f:51:a2:f3:1e:aa:7f:e8:ce:85:cd:79:63:51:
         34:29:e5:38:ba:20:dc:92:05:6b:dd:ff:0c:d8:b2:69:9f:39:
         c7:a1:84:4d:be:df:95:c6:73:cd:dc:ab:19:7b:bc:ad:51:5e:
         b7:85:84:9c:66:41:f1:02:10:57:5a:5a:67:7b:a1:ab:82:58:
         d0:72:2b:cd:96:1a:61:dd:2c:f3:4e:13:5e:04:18:fd:bc:60:
         6c:91:35:33:d7:ac:5f:0e:ef:3b:3d:94:01:c2:57:42:2b:56:
         98:65:11:27:b8:35:a1:1e:00:cb:a8:a2:4e:d5:12:42:20:0c:
         fe:01:83:88:d5:b5:a1:25:45:ea:c7:69:8c:ba:2a:05:9b:2d:
         64:ad:e3:da:48:fb:0d:e3:5b:94:0f:db:a2:ee:71:e6:a2:38:
         c7:06:ee:a3:8f:44:ce:34:c3:87:64:36:cd:5a:09:55:9e:f4:
         ab:ae:e9:df:55:90:91:85:eb:dc:43:fb:70:54:00:06:ca:23:
         6f:2a:0f:34:5f:e5:f4:23:88:c3:d7:13:12:1d:63:e4:3b:10:
         2c:ea:5a:a9
-----BEGIN CERTIFICATE-----
MIIDxDCCAqygAwIBAgIJAKsOLLFkuZc1MA0GCSqGSIb3DQEBCwUAMGMxCzAJBgNV
BAYTAkFVMRMwEQYDVQQIDApTb21lLVN0YXRlMSEwHwYDVQQKDBhJbnRlcm5ldCBX
aWRnaXRzIFB0eSBMdGQxHDAaBgNVBAMME2dyYXBoaXN0cnkuaW50ZXJuYWwwHhcN
MTYwNTA2MjM0MTM5WhcNMTcwNTA2MjM0MTM5WjBjMQswCQYDVQQGEwJBVTETMBEG
A1UECAwKU29tZS1TdGF0ZTEhMB8GA1UECgwYSW50ZXJuZXQgV2lkZ2l0cyBQdHkg
THRkMRwwGgYDVQQDDBNncmFwaGlzdHJ5LWluLWEtYm94MIIBIjANBgkqhkiG9w0B
AQEFAAOCAQ8AMIIBCgKCAQEAsekGTbUBalrpaSFZ8DzIlbkWV32h9PZxMOeivEu+
I5QNLpK/lQP69vbNTU+P/KKc/QyK41tZQAzFXJIU/cwp2PwBc6MkCnCI9qqpSzNd
ATP5q/bhjlrIFpjBRwzbtlnKb8S8oE9LoiQh/s2IvUjCVLpDEz5ILUtHH+TeKUhC
DefEZmUO3IsaW/e04UNMfqVXKLyWNfueXxzzSGrfZr7KLA1IHbOxG2OB2Hfu02lS
Y5tk1JPQKDqffFL6YNE6pc3dI/vCtjrj1oqFaLqh0jOYF5372Y8/xrG7sombPNT/
l8KVrx1chTJUpN9rgPvta2BlQXYW3Cx69QDKjhncz/1GvwIDAQABo3sweTAJBgNV
HRMEAjAAMCwGCWCGSAGG+EIBDQQfFh1PcGVuU1NMIEdlbmVyYXRlZCBDZXJ0aWZp
Y2F0ZTAdBgNVHQ4EFgQUKzV9xqkGFxBei6/LGlgqfBlEotUwHwYDVR0jBBgwFoAU
XVSa6lgKFNIg73h+q2SUcXZq+bAwDQYJKoZIhvcNAQELBQADggEBAJvBvU0xUoQu
F/SyJEfEgyeSm5vGX2DLdksMlNBKQlvsMis/NULj+HB/UaLzHqp/6M6FzXljUTQp
5Ti6INySBWvd/wzYsmmfOcehhE2+35XGc83cqxl7vK1RXreFhJxmQfECEFdaWmd7
oauCWNByK82WGmHdLPNOE14EGP28YGyRNTPXrF8O7zs9lAHCV0IrVphlESe4NaEe
AMuook7VEkIgDP4Bg4jVtaElRerHaYy6KgWbLWSt49pI+w3jW5QP26LuceaiOMcG
7qOPRM40w4dkNs1aCVWe9Kuu6d9VkJGF69xD+3BUAAbKI28qDzRf5fQjiMPXExId
Y+Q7ECzqWqk=
-----END CERTIFICATE-----
